; Function Attrs: mustprogress nounwind uwtable
define dso_local noundef i64 @_ZNK4llvm5APInt4uremEm(ptr noundef nonnull readonly align 8 captures(none) dereferenceable(12) %0, i64 noundef %1) local_unnamed_addr #0 align 2 {
  %3 = alloca i64, align 8
  %4 = alloca i64, align 8
  store i64 %1, ptr %3, align 8
  %5 = getelementptr inbounds nuw i8, ptr %0, i64 8
  %6 = load i32, ptr %5, align 8
  %7 = icmp ult i32 %6, 65
  br i1 %7, label %8, label %.lr.ph.i.i.i

8:                                                ; preds = %2
  %9 = load i64, ptr %0, align 8
  %10 = urem i64 %9, %1
  br label %72

.lr.ph.i.i.i:                                     ; preds = %2
  %11 = zext i32 %6 to i64
  %12 = add nuw nsw i64 %11, 63
  %13 = lshr i64 %12, 6
  %14 = load ptr, ptr %0, align 8
  br label %15

15:                                               ; preds = %20, %.lr.ph.i.i.i
  %indvars.iv.i.i = phi i64 [ %indvars.iv.next.i.i, %20 ], [ %13, %.lr.ph.i.i.i ]
  %.016.i.i.i = phi i32 [ %21, %20 ], [ 0, %.lr.ph.i.i.i ]
  %indvars.iv.next.i.i = add nsw i64 %indvars.iv.i.i, -1
  %16 = and i64 %indvars.iv.next.i.i, 4294967295
  %17 = getelementptr inbounds nuw i64, ptr %14, i64 %16
  %18 = load i64, ptr %17, align 8
  %19 = icmp eq i64 %18, 0
  br i1 %19, label %20, label %23

20:                                               ; preds = %15
  %21 = add i32 %.016.i.i.i, 64
  %22 = icmp samesign ugt i64 %indvars.iv.i.i, 1
  br i1 %22, label %15, label %_ZNK4llvm5APInt13getActiveBitsEv.exit, !llvm.loop !9

23:                                               ; preds = %15
  %24 = tail call range(i64 0, 65) i64 @llvm.ctlz.i64(i64 %18, i1 true)
  %25 = trunc nuw nsw i64 %24 to i32
  %26 = or disjoint i32 %.016.i.i.i, %25
  br label %_ZNK4llvm5APInt13getActiveBitsEv.exit

_ZNK4llvm5APInt13getActiveBitsEv.exit:            ; preds = %20, %23
  %.1.i.i.i = phi i32 [ %26, %23 ], [ %21, %20 ]
  %27 = and i32 %6, 63
  %.not.i.i.i = icmp eq i32 %27, 0
  %.neg.i.i.i = or i32 %6, -64
  %.neg13.i.i.i = select i1 %.not.i.i.i, i32 0, i32 %.neg.i.i.i
  %28 = add i32 %.1.i.i.i, %.neg13.i.i.i
  %29 = sub i32 %6, %28
  %30 = zext i32 %29 to i64
  %31 = add nuw nsw i64 %30, 63
  %32 = lshr i64 %31, 6
  %33 = trunc nuw nsw i64 %32 to i32
  %34 = icmp eq i32 %6, %28
  %35 = icmp eq i64 %1, 1
  %or.cond = or i1 %35, %34
  br i1 %or.cond, label %72, label %.lr.ph.i.i.i.i

.lr.ph.i.i.i.i:                                   ; preds = %_ZNK4llvm5APInt13getActiveBitsEv.exit, %40
  %indvars.iv.i.i.i = phi i64 [ %indvars.iv.next.i.i.i, %40 ], [ %13, %_ZNK4llvm5APInt13getActiveBitsEv.exit ]
  %.016.i.i.i.i = phi i32 [ %41, %40 ], [ 0, %_ZNK4llvm5APInt13getActiveBitsEv.exit ]
  %indvars.iv.next.i.i.i = add nsw i64 %indvars.iv.i.i.i, -1
  %36 = and i64 %indvars.iv.next.i.i.i, 4294967295
  %37 = getelementptr inbounds nuw i64, ptr %14, i64 %36
  %38 = load i64, ptr %37, align 8
  %39 = icmp eq i64 %38, 0
  br i1 %39, label %40, label %43

40:                                               ; preds = %.lr.ph.i.i.i.i
  %41 = add i32 %.016.i.i.i.i, 64
  %42 = icmp samesign ugt i64 %indvars.iv.i.i.i, 1
  br i1 %42, label %.lr.ph.i.i.i.i, label %_ZNK4llvm5APInt13getActiveBitsEv.exit.i, !llvm.loop !9

43:                                               ; preds = %.lr.ph.i.i.i.i
  %44 = tail call range(i64 0, 65) i64 @llvm.ctlz.i64(i64 %38, i1 true)
  %45 = trunc nuw nsw i64 %44 to i32
  %46 = or disjoint i32 %.016.i.i.i.i, %45
  br label %_ZNK4llvm5APInt13getActiveBitsEv.exit.i

_ZNK4llvm5APInt13getActiveBitsEv.exit.i:          ; preds = %40, %43
  %.1.i.i.i.i = phi i32 [ %46, %43 ], [ %41, %40 ]
  %47 = add i32 %.neg13.i.i.i, %.1.i.i.i.i
  %48 = sub i32 %6, %47
  %49 = icmp ult i32 %48, 65
  br i1 %49, label %_ZNK4llvm5APInt3ultEm.exit, label %.lr.ph.i.i.i.i8.preheader

_ZNK4llvm5APInt3ultEm.exit:                       ; preds = %_ZNK4llvm5APInt13getActiveBitsEv.exit.i
  %.0.i.i6 = load i64, ptr %14, align 8
  %50 = icmp ult i64 %.0.i.i6, %1
  br i1 %50, label %72, label %.lr.ph.i.i.i.i8.preheader

.lr.ph.i.i.i.i8.preheader:                        ; preds = %_ZNK4llvm5APInt13getActiveBitsEv.exit.i, %_ZNK4llvm5APInt3ultEm.exit
  br label %.lr.ph.i.i.i.i8

.lr.ph.i.i.i.i8:                                  ; preds = %.lr.ph.i.i.i.i8.preheader, %55
  %indvars.iv.i.i.i9 = phi i64 [ %indvars.iv.next.i.i.i11, %55 ], [ %13, %.lr.ph.i.i.i.i8.preheader ]
  %.016.i.i.i.i10 = phi i32 [ %56, %55 ], [ 0, %.lr.ph.i.i.i.i8.preheader ]
  %indvars.iv.next.i.i.i11 = add nsw i64 %indvars.iv.i.i.i9, -1
  %51 = and i64 %indvars.iv.next.i.i.i11, 4294967295
  %52 = getelementptr inbounds nuw i64, ptr %14, i64 %51
  %53 = load i64, ptr %52, align 8
  %54 = icmp eq i64 %53, 0
  br i1 %54, label %55, label %58

55:                                               ; preds = %.lr.ph.i.i.i.i8
  %56 = add i32 %.016.i.i.i.i10, 64
  %57 = icmp samesign ugt i64 %indvars.iv.i.i.i9, 1
  br i1 %57, label %.lr.ph.i.i.i.i8, label %_ZNK4llvm5APInt13getActiveBitsEv.exit.i12, !llvm.loop !9

58:                                               ; preds = %.lr.ph.i.i.i.i8
  %59 = tail call range(i64 0, 65) i64 @llvm.ctlz.i64(i64 %53, i1 true)
  %60 = trunc nuw nsw i64 %59 to i32
  %61 = or disjoint i32 %.016.i.i.i.i10, %60
  br label %_ZNK4llvm5APInt13getActiveBitsEv.exit.i12

_ZNK4llvm5APInt13getActiveBitsEv.exit.i12:        ; preds = %55, %58
  %.1.i.i.i.i13 = phi i32 [ %61, %58 ], [ %56, %55 ]
  %62 = add i32 %.neg13.i.i.i, %.1.i.i.i.i13
  %63 = sub i32 %6, %62
  %64 = icmp ult i32 %63, 65
  br i1 %64, label %_ZNK4llvm5APInteqEm.exit, label %_ZNK4llvm5APInteqEm.exit.thread

_ZNK4llvm5APInteqEm.exit:                         ; preds = %_ZNK4llvm5APInt13getActiveBitsEv.exit.i12
  %.0.i.i18 = load i64, ptr %14, align 8
  %65 = icmp eq i64 %.0.i.i18, %1
  br i1 %65, label %72, label %_ZNK4llvm5APInteqEm.exit.thread

_ZNK4llvm5APInteqEm.exit.thread:                  ; preds = %_ZNK4llvm5APInt13getActiveBitsEv.exit.i12, %_ZNK4llvm5APInteqEm.exit
  %66 = icmp eq i64 %32, 1
  br i1 %66, label %67, label %70

67:                                               ; preds = %_ZNK4llvm5APInteqEm.exit.thread
  %68 = load i64, ptr %14, align 8
  %69 = urem i64 %68, %1
  br label %72

70:                                               ; preds = %_ZNK4llvm5APInteqEm.exit.thread
  call void @_ZN4llvm5APInt6divideEPKmjS2_jPmS3_(ptr noundef nonnull %14, i32 noundef %33, ptr noundef nonnull %3, i32 noundef 1, ptr noundef null, ptr noundef nonnull %4)
  %71 = load i64, ptr %4, align 8
  br label %72

72:                                               ; preds = %_ZNK4llvm5APInt3ultEm.exit, %_ZNK4llvm5APInteqEm.exit, %_ZNK4llvm5APInt13getActiveBitsEv.exit, %70, %67, %8
  %.0 = phi i64 [ %10, %8 ], [ %69, %67 ], [ %71, %70 ], [ 0, %_ZNK4llvm5APInt13getActiveBitsEv.exit ], [ 0, %_ZNK4llvm5APInteqEm.exit ], [ %.0.i.i6, %_ZNK4llvm5APInt3ultEm.exit ]
  ret i64 %.0
}